; Function Attrs: mustprogress nofree norecurse nosync nounwind willreturn memory(argmem: readwrite) uwtable
define void @_ZNK3gmx17EnergyAccumulatorILb0ELb1EE11getEnergiesENS_8ArrayRefIfEES3_(ptr noundef nonnull readonly align 32 captures(none) dereferenceable(72) %0, ptr writeonly captures(none) initializes((0, 4)) %1, ptr readnone captures(none) %2, ptr writeonly captures(none) initializes((0, 4)) %3, ptr readnone captures(none) %4) local_unnamed_addr #8 align 2 {
  %6 = getelementptr inbounds nuw i8, ptr %0, i64 64
  %7 = load float, ptr %6, align 32, !tbaa !33
  store float %7, ptr %1, align 4, !tbaa !37
  %8 = getelementptr inbounds nuw i8, ptr %0, i64 68
  %9 = load float, ptr %8, align 4, !tbaa !38
  store float %9, ptr %3, align 4, !tbaa !37
  ret void
}